target datalayout = "e-m:e-p270:32:32-p271:32:32-p272:64:64-i64:64-i128:128-f80:128-n8:16:32:64-S128"
target triple = "x86_64-pc-linux-gnu"

%struct._generic_SUNMatrix = type { ptr, ptr, ptr }
%struct._SUNMatrixContent_Sparse = type { i64, i64, i64, i64, ptr, i32, ptr, ptr, ptr, ptr, ptr, ptr }

@.str = private unnamed_addr constant [4 x i8] c"col\00", align 1
@.str.1 = private unnamed_addr constant [4 x i8] c"CSC\00", align 1
@.str.2 = private unnamed_addr constant [4 x i8] c"row\00", align 1
@.str.3 = private unnamed_addr constant [4 x i8] c"CSR\00", align 1
@.str.4 = private unnamed_addr constant [2 x i8] c"\0A\00", align 1
@.str.5 = private unnamed_addr constant [33 x i8] c"%ld by %ld %s matrix, NNZ: %ld \0A\00", align 1
@.str.6 = private unnamed_addr constant [31 x i8] c"%s %ld : locations %ld to %ld\0A\00", align 1
@.str.7 = private unnamed_addr constant [3 x i8] c"  \00", align 1
@.str.8 = private unnamed_addr constant [14 x i8] c"%ld: %.16g   \00", align 1

; Function Attrs: nounwind uwtable
define void @SUNSparseMatrix_Print(ptr noundef %0, ptr noundef %1) #0 {
  %3 = alloca ptr, align 8
  %4 = alloca ptr, align 8
  %5 = alloca ptr, align 8
  %6 = alloca i64, align 8
  %7 = alloca i64, align 8
  %8 = alloca ptr, align 8
  %9 = alloca ptr, align 8
  store ptr %0, ptr %3, align 8, !tbaa !12
  store ptr %1, ptr %4, align 8, !tbaa !67
  call void @llvm.lifetime.start.p0(i64 8, ptr %5) #8
  %10 = load ptr, ptr %3, align 8, !tbaa !12
  %11 = getelementptr inbounds nuw %struct._generic_SUNMatrix, ptr %10, i32 0, i32 2
  %12 = load ptr, ptr %11, align 8, !tbaa !46
  store ptr %12, ptr %5, align 8, !tbaa !9
  call void @llvm.lifetime.start.p0(i64 8, ptr %6) #8
  call void @llvm.lifetime.start.p0(i64 8, ptr %7) #8
  call void @llvm.lifetime.start.p0(i64 8, ptr %8) #8
  call void @llvm.lifetime.start.p0(i64 8, ptr %9) #8
  %13 = load ptr, ptr %3, align 8, !tbaa !12
  %14 = getelementptr inbounds nuw %struct._generic_SUNMatrix, ptr %13, i32 0, i32 0
  %15 = load ptr, ptr %14, align 8, !tbaa !29
  %16 = getelementptr inbounds nuw %struct._SUNMatrixContent_Sparse, ptr %15, i32 0, i32 5
  %17 = load i32, ptr %16, align 8, !tbaa !30
  %18 = icmp eq i32 %17, 0
  br i1 %18, label %19, label %20

19:                                               ; preds = %2
  store ptr @.str, ptr %9, align 8, !tbaa !69
  store ptr @.str.1, ptr %8, align 8, !tbaa !69
  br label %21

20:                                               ; preds = %2
  store ptr @.str.2, ptr %9, align 8, !tbaa !69
  store ptr @.str.3, ptr %8, align 8, !tbaa !69
  br label %21

21:                                               ; preds = %20, %19
  %22 = load ptr, ptr %4, align 8, !tbaa !67
  %23 = call i32 (ptr, ptr, ...) @fprintf(ptr noundef %22, ptr noundef @.str.4) #8
  %24 = load ptr, ptr %4, align 8, !tbaa !67
  %25 = load ptr, ptr %3, align 8, !tbaa !12
  %26 = getelementptr inbounds nuw %struct._generic_SUNMatrix, ptr %25, i32 0, i32 0
  %27 = load ptr, ptr %26, align 8, !tbaa !29
  %28 = getelementptr inbounds nuw %struct._SUNMatrixContent_Sparse, ptr %27, i32 0, i32 0
  %29 = load i64, ptr %28, align 8, !tbaa !35
  %30 = load ptr, ptr %3, align 8, !tbaa !12
  %31 = getelementptr inbounds nuw %struct._generic_SUNMatrix, ptr %30, i32 0, i32 0
  %32 = load ptr, ptr %31, align 8, !tbaa !29
  %33 = getelementptr inbounds nuw %struct._SUNMatrixContent_Sparse, ptr %32, i32 0, i32 1
  %34 = load i64, ptr %33, align 8, !tbaa !36
  %35 = load ptr, ptr %8, align 8, !tbaa !69
  %36 = load ptr, ptr %3, align 8, !tbaa !12
  %37 = getelementptr inbounds nuw %struct._generic_SUNMatrix, ptr %36, i32 0, i32 0
  %38 = load ptr, ptr %37, align 8, !tbaa !29
  %39 = getelementptr inbounds nuw %struct._SUNMatrixContent_Sparse, ptr %38, i32 0, i32 2
  %40 = load i64, ptr %39, align 8, !tbaa !37
  %41 = call i32 (ptr, ptr, ...) @fprintf(ptr noundef %24, ptr noundef @.str.5, i64 noundef %29, i64 noundef %34, ptr noundef %35, i64 noundef %40) #8
  store i64 0, ptr %7, align 8, !tbaa !3
  br label %42

42:                                               ; preds = %120, %21
  %43 = load i64, ptr %7, align 8, !tbaa !3
  %44 = load ptr, ptr %3, align 8, !tbaa !12
  %45 = getelementptr inbounds nuw %struct._generic_SUNMatrix, ptr %44, i32 0, i32 0
  %46 = load ptr, ptr %45, align 8, !tbaa !29
  %47 = getelementptr inbounds nuw %struct._SUNMatrixContent_Sparse, ptr %46, i32 0, i32 3
  %48 = load i64, ptr %47, align 8, !tbaa !38
  %49 = icmp slt i64 %43, %48
  br i1 %49, label %50, label %123

50:                                               ; preds = %42
  %51 = load ptr, ptr %4, align 8, !tbaa !67
  %52 = load ptr, ptr %9, align 8, !tbaa !69
  %53 = load i64, ptr %7, align 8, !tbaa !3
  %54 = load ptr, ptr %3, align 8, !tbaa !12
  %55 = getelementptr inbounds nuw %struct._generic_SUNMatrix, ptr %54, i32 0, i32 0
  %56 = load ptr, ptr %55, align 8, !tbaa !29
  %57 = getelementptr inbounds nuw %struct._SUNMatrixContent_Sparse, ptr %56, i32 0, i32 7
  %58 = load ptr, ptr %57, align 8, !tbaa !45
  %59 = load i64, ptr %7, align 8, !tbaa !3
  %60 = getelementptr inbounds i64, ptr %58, i64 %59
  %61 = load i64, ptr %60, align 8, !tbaa !3
  %62 = load ptr, ptr %3, align 8, !tbaa !12
  %63 = getelementptr inbounds nuw %struct._generic_SUNMatrix, ptr %62, i32 0, i32 0
  %64 = load ptr, ptr %63, align 8, !tbaa !29
  %65 = getelementptr inbounds nuw %struct._SUNMatrixContent_Sparse, ptr %64, i32 0, i32 7
  %66 = load ptr, ptr %65, align 8, !tbaa !45
  %67 = load i64, ptr %7, align 8, !tbaa !3
  %68 = add nsw i64 %67, 1
  %69 = getelementptr inbounds i64, ptr %66, i64 %68
  %70 = load i64, ptr %69, align 8, !tbaa !3
  %71 = sub nsw i64 %70, 1
  %72 = call i32 (ptr, ptr, ...) @fprintf(ptr noundef %51, ptr noundef @.str.6, ptr noundef %52, i64 noundef %53, i64 noundef %61, i64 noundef %71) #8
  %73 = load ptr, ptr %4, align 8, !tbaa !67
  %74 = call i32 (ptr, ptr, ...) @fprintf(ptr noundef %73, ptr noundef @.str.7) #8
  %75 = load ptr, ptr %3, align 8, !tbaa !12
  %76 = getelementptr inbounds nuw %struct._generic_SUNMatrix, ptr %75, i32 0, i32 0
  %77 = load ptr, ptr %76, align 8, !tbaa !29
  %78 = getelementptr inbounds nuw %struct._SUNMatrixContent_Sparse, ptr %77, i32 0, i32 7
  %79 = load ptr, ptr %78, align 8, !tbaa !45
  %80 = load i64, ptr %7, align 8, !tbaa !3
  %81 = getelementptr inbounds i64, ptr %79, i64 %80
  %82 = load i64, ptr %81, align 8, !tbaa !3
  store i64 %82, ptr %6, align 8, !tbaa !3
  br label %83

83:                                               ; preds = %114, %50
  %84 = load i64, ptr %6, align 8, !tbaa !3
  %85 = load ptr, ptr %3, align 8, !tbaa !12
  %86 = getelementptr inbounds nuw %struct._generic_SUNMatrix, ptr %85, i32 0, i32 0
  %87 = load ptr, ptr %86, align 8, !tbaa !29
  %88 = getelementptr inbounds nuw %struct._SUNMatrixContent_Sparse, ptr %87, i32 0, i32 7
  %89 = load ptr, ptr %88, align 8, !tbaa !45
  %90 = load i64, ptr %7, align 8, !tbaa !3
  %91 = add nsw i64 %90, 1
  %92 = getelementptr inbounds i64, ptr %89, i64 %91
  %93 = load i64, ptr %92, align 8, !tbaa !3
  %94 = icmp slt i64 %84, %93
  br i1 %94, label %95, label %117

95:                                               ; preds = %83
  %96 = load ptr, ptr %4, align 8, !tbaa !67
  %97 = load ptr, ptr %3, align 8, !tbaa !12
  %98 = getelementptr inbounds nuw %struct._generic_SUNMatrix, ptr %97, i32 0, i32 0
  %99 = load ptr, ptr %98, align 8, !tbaa !29
  %100 = getelementptr inbounds nuw %struct._SUNMatrixContent_Sparse, ptr %99, i32 0, i32 6
  %101 = load ptr, ptr %100, align 8, !tbaa !44
  %102 = load i64, ptr %6, align 8, !tbaa !3
  %103 = getelementptr inbounds i64, ptr %101, i64 %102
  %104 = load i64, ptr %103, align 8, !tbaa !3
  %105 = load ptr, ptr %3, align 8, !tbaa !12
  %106 = getelementptr inbounds nuw %struct._generic_SUNMatrix, ptr %105, i32 0, i32 0
  %107 = load ptr, ptr %106, align 8, !tbaa !29
  %108 = getelementptr inbounds nuw %struct._SUNMatrixContent_Sparse, ptr %107, i32 0, i32 4
  %109 = load ptr, ptr %108, align 8, !tbaa !43
  %110 = load i64, ptr %6, align 8, !tbaa !3
  %111 = getelementptr inbounds double, ptr %109, i64 %110
  %112 = load double, ptr %111, align 8, !tbaa !47
  %113 = call i32 (ptr, ptr, ...) @fprintf(ptr noundef %96, ptr noundef @.str.8, i64 noundef %104, double noundef %112) #8
  br label %114

114:                                              ; preds = %95
  %115 = load i64, ptr %6, align 8, !tbaa !3
  %116 = add nsw i64 %115, 1
  store i64 %116, ptr %6, align 8, !tbaa !3
  br label %83

117:                                              ; preds = %83
  %118 = load ptr, ptr %4, align 8, !tbaa !67
  %119 = call i32 (ptr, ptr, ...) @fprintf(ptr noundef %118, ptr noundef @.str.4) #8
  br label %120

120:                                              ; preds = %117
  %121 = load i64, ptr %7, align 8, !tbaa !3
  %122 = add nsw i64 %121, 1
  store i64 %122, ptr %7, align 8, !tbaa !3
  br label %42

123:                                              ; preds = %42
  %124 = load ptr, ptr %4, align 8, !tbaa !67
  %125 = call i32 (ptr, ptr, ...) @fprintf(ptr noundef %124, ptr noundef @.str.4) #8
  call void @llvm.lifetime.end.p0(i64 8, ptr %9) #8
  call void @llvm.lifetime.end.p0(i64 8, ptr %8) #8
  call void @llvm.lifetime.end.p0(i64 8, ptr %7) #8
  call void @llvm.lifetime.end.p0(i64 8, ptr %6) #8
  call void @llvm.lifetime.end.p0(i64 8, ptr %5) #8
  ret void
}