; Function Attrs: nofree nounwind uwtable
define void @SUNSparseMatrix_Print(ptr noundef readonly captures(none) %0, ptr noundef captures(none) %1) local_unnamed_addr #10 {
  %3 = load ptr, ptr %0, align 8, !tbaa !20
  %4 = getelementptr inbounds nuw i8, ptr %3, i64 40
  %5 = load i32, ptr %4, align 8, !tbaa !21
  %6 = icmp eq i32 %5, 0
  %.str.1..str.3 = select i1 %6, ptr @.str.1, ptr @.str.3
  %.str..str.2 = select i1 %6, ptr @.str, ptr @.str.2
  %fputc = tail call i32 @fputc(i32 10, ptr %1)
  %7 = load ptr, ptr %0, align 8, !tbaa !20
  %8 = load i64, ptr %7, align 8, !tbaa !28
  %9 = getelementptr inbounds nuw i8, ptr %7, i64 8
  %10 = load i64, ptr %9, align 8, !tbaa !29
  %11 = getelementptr inbounds nuw i8, ptr %7, i64 16
  %12 = load i64, ptr %11, align 8, !tbaa !30
  %13 = tail call i32 (ptr, ptr, ...) @fprintf(ptr noundef %1, ptr noundef nonnull @.str.5, i64 noundef %8, i64 noundef %10, ptr noundef nonnull %.str.1..str.3, i64 noundef %12) #17
  %14 = load ptr, ptr %0, align 8, !tbaa !20
  %15 = getelementptr inbounds nuw i8, ptr %14, i64 24
  %16 = load i64, ptr %15, align 8, !tbaa !31
  %17 = icmp sgt i64 %16, 0
  br i1 %17, label %.lr.ph39, label %._crit_edge40

.lr.ph39:                                         ; preds = %2, %._crit_edge
  %18 = phi ptr [ %54, %._crit_edge ], [ %14, %2 ]
  %.03237 = phi i64 [ %23, %._crit_edge ], [ 0, %2 ]
  %19 = getelementptr inbounds nuw i8, ptr %18, i64 56
  %20 = load ptr, ptr %19, align 8, !tbaa !35
  %21 = getelementptr inbounds nuw i64, ptr %20, i64 %.03237
  %22 = load i64, ptr %21, align 8, !tbaa !43
  %23 = add nuw nsw i64 %.03237, 1
  %24 = getelementptr inbounds nuw i64, ptr %20, i64 %23
  %25 = load i64, ptr %24, align 8, !tbaa !43
  %26 = add nsw i64 %25, -1
  %27 = tail call i32 (ptr, ptr, ...) @fprintf(ptr noundef %1, ptr noundef nonnull @.str.6, ptr noundef nonnull %.str..str.2, i64 noundef %.03237, i64 noundef %22, i64 noundef %26) #17
  %28 = tail call i64 @fwrite(ptr nonnull @.str.7, i64 2, i64 1, ptr %1)
  %29 = load ptr, ptr %0, align 8, !tbaa !20
  %30 = getelementptr inbounds nuw i8, ptr %29, i64 56
  %31 = load ptr, ptr %30, align 8, !tbaa !35
  %32 = getelementptr inbounds nuw i64, ptr %31, i64 %.03237
  %33 = load i64, ptr %32, align 8, !tbaa !43
  %34 = getelementptr inbounds nuw i64, ptr %31, i64 %23
  %35 = load i64, ptr %34, align 8, !tbaa !43
  %36 = icmp slt i64 %33, %35
  br i1 %36, label %.lr.ph, label %._crit_edge

.lr.ph:                                           ; preds = %.lr.ph39, %.lr.ph
  %37 = phi ptr [ %48, %.lr.ph ], [ %29, %.lr.ph39 ]
  %.03336 = phi i64 [ %47, %.lr.ph ], [ %33, %.lr.ph39 ]
  %38 = getelementptr inbounds nuw i8, ptr %37, i64 48
  %39 = load ptr, ptr %38, align 8, !tbaa !34
  %40 = getelementptr inbounds i64, ptr %39, i64 %.03336
  %41 = load i64, ptr %40, align 8, !tbaa !43
  %42 = getelementptr inbounds nuw i8, ptr %37, i64 32
  %43 = load ptr, ptr %42, align 8, !tbaa !33
  %44 = getelementptr inbounds double, ptr %43, i64 %.03336
  %45 = load double, ptr %44, align 8, !tbaa !41
  %46 = tail call i32 (ptr, ptr, ...) @fprintf(ptr noundef %1, ptr noundef nonnull @.str.8, i64 noundef %41, double noundef %45) #17
  %47 = add nsw i64 %.03336, 1
  %48 = load ptr, ptr %0, align 8, !tbaa !20
  %49 = getelementptr inbounds nuw i8, ptr %48, i64 56
  %50 = load ptr, ptr %49, align 8, !tbaa !35
  %51 = getelementptr inbounds nuw i64, ptr %50, i64 %23
  %52 = load i64, ptr %51, align 8, !tbaa !43
  %53 = icmp slt i64 %47, %52
  br i1 %53, label %.lr.ph, label %._crit_edge

._crit_edge:                                      ; preds = %.lr.ph, %.lr.ph39
  %fputc35 = tail call i32 @fputc(i32 10, ptr %1)
  %54 = load ptr, ptr %0, align 8, !tbaa !20
  %55 = getelementptr inbounds nuw i8, ptr %54, i64 24
  %56 = load i64, ptr %55, align 8, !tbaa !31
  %57 = icmp slt i64 %23, %56
  br i1 %57, label %.lr.ph39, label %._crit_edge40

._crit_edge40:                                    ; preds = %._crit_edge, %2
  %fputc34 = tail call i32 @fputc(i32 10, ptr %1)
  ret void
}